target datalayout = "e-m:e-p270:32:32-p271:32:32-p272:64:64-i64:64-i128:128-f80:128-n8:16:32:64-S128"
target triple = "x86_64-pc-linux-gnu"

; Function Attrs: mustprogress uwtable
define hidden i32 @mbedtls_base64_decode(ptr noundef %0, i64 noundef %1, ptr noundef %2, ptr noundef %3, i64 noundef %4) #0 {
  %6 = alloca i32, align 4
  %7 = alloca ptr, align 8
  %8 = alloca i64, align 8
  %9 = alloca ptr, align 8
  %10 = alloca ptr, align 8
  %11 = alloca i64, align 8
  %12 = alloca i64, align 8
  %13 = alloca i64, align 8
  %14 = alloca i32, align 4
  %15 = alloca i32, align 4
  %16 = alloca i32, align 4
  %17 = alloca i32, align 4
  %18 = alloca ptr, align 8
  %19 = alloca i32, align 4
  store ptr %0, ptr %7, align 8, !tbaa !3
  store i64 %1, ptr %8, align 8, !tbaa !8
  store ptr %2, ptr %9, align 8, !tbaa !10
  store ptr %3, ptr %10, align 8, !tbaa !3
  store i64 %4, ptr %11, align 8, !tbaa !8
  call void @llvm.lifetime.start.p0(i64 8, ptr %12) #3
  call void @llvm.lifetime.start.p0(i64 8, ptr %13) #3
  call void @llvm.lifetime.start.p0(i64 4, ptr %14) #3
  call void @llvm.lifetime.start.p0(i64 4, ptr %15) #3
  store i32 0, ptr %15, align 4, !tbaa !13
  call void @llvm.lifetime.start.p0(i64 4, ptr %16) #3
  store i32 0, ptr %16, align 4, !tbaa !13
  call void @llvm.lifetime.start.p0(i64 4, ptr %17) #3
  store i32 0, ptr %17, align 4, !tbaa !13
  call void @llvm.lifetime.start.p0(i64 8, ptr %18) #3
  store i64 0, ptr %13, align 8, !tbaa !8
  store i64 0, ptr %12, align 8, !tbaa !8
  br label %20

20:                                               ; preds = %117, %5
  %21 = load i64, ptr %12, align 8, !tbaa !8
  %22 = load i64, ptr %11, align 8, !tbaa !8
  %23 = icmp ult i64 %21, %22
  br i1 %23, label %24, label %120

24:                                               ; preds = %20
  store i32 0, ptr %17, align 4, !tbaa !13
  br label %25

25:                                               ; preds = %38, %24
  %26 = load i64, ptr %12, align 8, !tbaa !8
  %27 = load i64, ptr %11, align 8, !tbaa !8
  %28 = icmp ult i64 %26, %27
  br i1 %28, label %29, label %36

29:                                               ; preds = %25
  %30 = load ptr, ptr %10, align 8, !tbaa !3
  %31 = load i64, ptr %12, align 8, !tbaa !8
  %32 = getelementptr inbounds nuw i8, ptr %30, i64 %31
  %33 = load i8, ptr %32, align 1, !tbaa !12
  %34 = zext i8 %33 to i32
  %35 = icmp eq i32 %34, 32
  br label %36

36:                                               ; preds = %29, %25
  %37 = phi i1 [ false, %25 ], [ %35, %29 ]
  br i1 %37, label %38, label %41

38:                                               ; preds = %36
  %39 = load i64, ptr %12, align 8, !tbaa !8
  %40 = add i64 %39, 1
  store i64 %40, ptr %12, align 8, !tbaa !8
  store i32 1, ptr %17, align 4, !tbaa !13
  br label %25, !llvm.loop !17

41:                                               ; preds = %36
  %42 = load i64, ptr %12, align 8, !tbaa !8
  %43 = load i64, ptr %11, align 8, !tbaa !8
  %44 = icmp eq i64 %42, %43
  br i1 %44, label %45, label %46

45:                                               ; preds = %41
  br label %120

46:                                               ; preds = %41
  %47 = load i64, ptr %11, align 8, !tbaa !8
  %48 = load i64, ptr %12, align 8, !tbaa !8
  %49 = sub i64 %47, %48
  %50 = icmp uge i64 %49, 2
  br i1 %50, label %51, label %67

51:                                               ; preds = %46
  %52 = load ptr, ptr %10, align 8, !tbaa !3
  %53 = load i64, ptr %12, align 8, !tbaa !8
  %54 = getelementptr inbounds nuw i8, ptr %52, i64 %53
  %55 = load i8, ptr %54, align 1, !tbaa !12
  %56 = zext i8 %55 to i32
  %57 = icmp eq i32 %56, 13
  br i1 %57, label %58, label %67

58:                                               ; preds = %51
  %59 = load ptr, ptr %10, align 8, !tbaa !3
  %60 = load i64, ptr %12, align 8, !tbaa !8
  %61 = add i64 %60, 1
  %62 = getelementptr inbounds nuw i8, ptr %59, i64 %61
  %63 = load i8, ptr %62, align 1, !tbaa !12
  %64 = zext i8 %63 to i32
  %65 = icmp eq i32 %64, 10
  br i1 %65, label %66, label %67

66:                                               ; preds = %58
  br label %117

67:                                               ; preds = %58, %51, %46
  %68 = load ptr, ptr %10, align 8, !tbaa !3
  %69 = load i64, ptr %12, align 8, !tbaa !8
  %70 = getelementptr inbounds nuw i8, ptr %68, i64 %69
  %71 = load i8, ptr %70, align 1, !tbaa !12
  %72 = zext i8 %71 to i32
  %73 = icmp eq i32 %72, 10
  br i1 %73, label %74, label %75

74:                                               ; preds = %67
  br label %117

75:                                               ; preds = %67
  %76 = load i32, ptr %17, align 4, !tbaa !13
  %77 = icmp ne i32 %76, 0
  br i1 %77, label %78, label %79

78:                                               ; preds = %75
  store i32 -44, ptr %6, align 4
  store i32 1, ptr %19, align 4
  br label %229

79:                                               ; preds = %75
  %80 = load ptr, ptr %10, align 8, !tbaa !3
  %81 = load i64, ptr %12, align 8, !tbaa !8
  %82 = getelementptr inbounds nuw i8, ptr %80, i64 %81
  %83 = load i8, ptr %82, align 1, !tbaa !12
  %84 = zext i8 %83 to i32
  %85 = icmp sgt i32 %84, 127
  br i1 %85, label %86, label %87

86:                                               ; preds = %79
  store i32 -44, ptr %6, align 4
  store i32 1, ptr %19, align 4
  br label %229

87:                                               ; preds = %79
  %88 = load ptr, ptr %10, align 8, !tbaa !3
  %89 = load i64, ptr %12, align 8, !tbaa !8
  %90 = getelementptr inbounds nuw i8, ptr %88, i64 %89
  %91 = load i8, ptr %90, align 1, !tbaa !12
  %92 = zext i8 %91 to i32
  %93 = icmp eq i32 %92, 61
  br i1 %93, label %94, label %100

94:                                               ; preds = %87
  %95 = load i32, ptr %16, align 4, !tbaa !13
  %96 = add i32 %95, 1
  store i32 %96, ptr %16, align 4, !tbaa !13
  %97 = icmp ugt i32 %96, 2
  br i1 %97, label %98, label %99

98:                                               ; preds = %94
  store i32 -44, ptr %6, align 4
  store i32 1, ptr %19, align 4
  br label %229

99:                                               ; preds = %94
  br label %114

100:                                              ; preds = %87
  %101 = load i32, ptr %16, align 4, !tbaa !13
  %102 = icmp ne i32 %101, 0
  br i1 %102, label %103, label %104

103:                                              ; preds = %100
  store i32 -44, ptr %6, align 4
  store i32 1, ptr %19, align 4
  br label %229

104:                                              ; preds = %100
  %105 = load ptr, ptr %10, align 8, !tbaa !3
  %106 = load i64, ptr %12, align 8, !tbaa !8
  %107 = getelementptr inbounds nuw i8, ptr %105, i64 %106
  %108 = load i8, ptr %107, align 1, !tbaa !12
  %109 = call noundef signext i8 @_Z27mbedtls_ct_base64_dec_valueh(i8 noundef zeroext %108)
  %110 = sext i8 %109 to i32
  %111 = icmp slt i32 %110, 0
  br i1 %111, label %112, label %113

112:                                              ; preds = %104
  store i32 -44, ptr %6, align 4
  store i32 1, ptr %19, align 4
  br label %229

113:                                              ; preds = %104
  br label %114

114:                                              ; preds = %113, %99
  %115 = load i64, ptr %13, align 8, !tbaa !8
  %116 = add i64 %115, 1
  store i64 %116, ptr %13, align 8, !tbaa !8
  br label %117

117:                                              ; preds = %114, %74, %66
  %118 = load i64, ptr %12, align 8, !tbaa !8
  %119 = add i64 %118, 1
  store i64 %119, ptr %12, align 8, !tbaa !8
  br label %20, !llvm.loop !18

120:                                              ; preds = %45, %20
  %121 = load i64, ptr %13, align 8, !tbaa !8
  %122 = icmp eq i64 %121, 0
  br i1 %122, label %123, label %125

123:                                              ; preds = %120
  %124 = load ptr, ptr %9, align 8, !tbaa !10
  store i64 0, ptr %124, align 8, !tbaa !8
  store i32 0, ptr %6, align 4
  store i32 1, ptr %19, align 4
  br label %229

125:                                              ; preds = %120
  %126 = load i64, ptr %13, align 8, !tbaa !8
  %127 = lshr i64 %126, 3
  %128 = mul i64 6, %127
  %129 = load i64, ptr %13, align 8, !tbaa !8
  %130 = and i64 %129, 7
  %131 = mul i64 6, %130
  %132 = add i64 %131, 7
  %133 = lshr i64 %132, 3
  %134 = add i64 %128, %133
  store i64 %134, ptr %13, align 8, !tbaa !8
  %135 = load i32, ptr %16, align 4, !tbaa !13
  %136 = zext i32 %135 to i64
  %137 = load i64, ptr %13, align 8, !tbaa !8
  %138 = sub i64 %137, %136
  store i64 %138, ptr %13, align 8, !tbaa !8
  %139 = load ptr, ptr %7, align 8, !tbaa !3
  %140 = icmp eq ptr %139, null
  br i1 %140, label %145, label %141

141:                                              ; preds = %125
  %142 = load i64, ptr %8, align 8, !tbaa !8
  %143 = load i64, ptr %13, align 8, !tbaa !8
  %144 = icmp ult i64 %142, %143
  br i1 %144, label %145, label %148

145:                                              ; preds = %141, %125
  %146 = load i64, ptr %13, align 8, !tbaa !8
  %147 = load ptr, ptr %9, align 8, !tbaa !10
  store i64 %146, ptr %147, align 8, !tbaa !8
  store i32 -42, ptr %6, align 4
  store i32 1, ptr %19, align 4
  br label %229

148:                                              ; preds = %141
  store i32 0, ptr %16, align 4, !tbaa !13
  store i32 0, ptr %14, align 4, !tbaa !13
  %149 = load ptr, ptr %7, align 8, !tbaa !3
  store ptr %149, ptr %18, align 8, !tbaa !3
  br label %150

150:                                              ; preds = %217, %148
  %151 = load i64, ptr %12, align 8, !tbaa !8
  %152 = icmp ugt i64 %151, 0
  br i1 %152, label %153, label %222

153:                                              ; preds = %150
  %154 = load ptr, ptr %10, align 8, !tbaa !3
  %155 = load i8, ptr %154, align 1, !tbaa !12
  %156 = zext i8 %155 to i32
  %157 = icmp eq i32 %156, 13
  br i1 %157, label %168, label %158

158:                                              ; preds = %153
  %159 = load ptr, ptr %10, align 8, !tbaa !3
  %160 = load i8, ptr %159, align 1, !tbaa !12
  %161 = zext i8 %160 to i32
  %162 = icmp eq i32 %161, 10
  br i1 %162, label %168, label %163

163:                                              ; preds = %158
  %164 = load ptr, ptr %10, align 8, !tbaa !3
  %165 = load i8, ptr %164, align 1, !tbaa !12
  %166 = zext i8 %165 to i32
  %167 = icmp eq i32 %166, 32
  br i1 %167, label %168, label %169

168:                                              ; preds = %163, %158, %153
  br label %217

169:                                              ; preds = %163
  %170 = load i32, ptr %14, align 4, !tbaa !13
  %171 = shl i32 %170, 6
  store i32 %171, ptr %14, align 4, !tbaa !13
  %172 = load ptr, ptr %10, align 8, !tbaa !3
  %173 = load i8, ptr %172, align 1, !tbaa !12
  %174 = zext i8 %173 to i32
  %175 = icmp eq i32 %174, 61
  br i1 %175, label %176, label %179

176:                                              ; preds = %169
  %177 = load i32, ptr %16, align 4, !tbaa !13
  %178 = add i32 %177, 1
  store i32 %178, ptr %16, align 4, !tbaa !13
  br label %186

179:                                              ; preds = %169
  %180 = load ptr, ptr %10, align 8, !tbaa !3
  %181 = load i8, ptr %180, align 1, !tbaa !12
  %182 = call noundef signext i8 @_Z27mbedtls_ct_base64_dec_valueh(i8 noundef zeroext %181)
  %183 = sext i8 %182 to i32
  %184 = load i32, ptr %14, align 4, !tbaa !13
  %185 = or i32 %184, %183
  store i32 %185, ptr %14, align 4, !tbaa !13
  br label %186

186:                                              ; preds = %179, %176
  %187 = load i32, ptr %15, align 4, !tbaa !13
  %188 = add i32 %187, 1
  store i32 %188, ptr %15, align 4, !tbaa !13
  %189 = icmp eq i32 %188, 4
  br i1 %189, label %190, label %216

190:                                              ; preds = %186
  store i32 0, ptr %15, align 4, !tbaa !13
  %191 = load i32, ptr %14, align 4, !tbaa !13
  %192 = lshr i32 %191, 16
  %193 = and i32 %192, 255
  %194 = trunc i32 %193 to i8
  %195 = load ptr, ptr %18, align 8, !tbaa !3
  %196 = getelementptr inbounds nuw i8, ptr %195, i32 1
  store ptr %196, ptr %18, align 8, !tbaa !3
  store i8 %194, ptr %195, align 1, !tbaa !12
  %197 = load i32, ptr %16, align 4, !tbaa !13
  %198 = icmp ule i32 %197, 1
  br i1 %198, label %199, label %206

199:                                              ; preds = %190
  %200 = load i32, ptr %14, align 4, !tbaa !13
  %201 = lshr i32 %200, 8
  %202 = and i32 %201, 255
  %203 = trunc i32 %202 to i8
  %204 = load ptr, ptr %18, align 8, !tbaa !3
  %205 = getelementptr inbounds nuw i8, ptr %204, i32 1
  store ptr %205, ptr %18, align 8, !tbaa !3
  store i8 %203, ptr %204, align 1, !tbaa !12
  br label %206

206:                                              ; preds = %199, %190
  %207 = load i32, ptr %16, align 4, !tbaa !13
  %208 = icmp ule i32 %207, 0
  br i1 %208, label %209, label %215

209:                                              ; preds = %206
  %210 = load i32, ptr %14, align 4, !tbaa !13
  %211 = and i32 %210, 255
  %212 = trunc i32 %211 to i8
  %213 = load ptr, ptr %18, align 8, !tbaa !3
  %214 = getelementptr inbounds nuw i8, ptr %213, i32 1
  store ptr %214, ptr %18, align 8, !tbaa !3
  store i8 %212, ptr %213, align 1, !tbaa !12
  br label %215

215:                                              ; preds = %209, %206
  br label %216

216:                                              ; preds = %215, %186
  br label %217

217:                                              ; preds = %216, %168
  %218 = load i64, ptr %12, align 8, !tbaa !8
  %219 = add i64 %218, -1
  store i64 %219, ptr %12, align 8, !tbaa !8
  %220 = load ptr, ptr %10, align 8, !tbaa !3
  %221 = getelementptr inbounds nuw i8, ptr %220, i32 1
  store ptr %221, ptr %10, align 8, !tbaa !3
  br label %150, !llvm.loop !19

222:                                              ; preds = %150
  %223 = load ptr, ptr %18, align 8, !tbaa !3
  %224 = load ptr, ptr %7, align 8, !tbaa !3
  %225 = ptrtoint ptr %223 to i64
  %226 = ptrtoint ptr %224 to i64
  %227 = sub i64 %225, %226
  %228 = load ptr, ptr %9, align 8, !tbaa !10
  store i64 %227, ptr %228, align 8, !tbaa !8
  store i32 0, ptr %6, align 4
  store i32 1, ptr %19, align 4
  br label %229

229:                                              ; preds = %222, %145, %123, %112, %103, %98, %86, %78
  call void @llvm.lifetime.end.p0(i64 8, ptr %18) #3
  call void @llvm.lifetime.end.p0(i64 4, ptr %17) #3
  call void @llvm.lifetime.end.p0(i64 4, ptr %16) #3
  call void @llvm.lifetime.end.p0(i64 4, ptr %15) #3
  call void @llvm.lifetime.end.p0(i64 4, ptr %14) #3
  call void @llvm.lifetime.end.p0(i64 8, ptr %13) #3
  call void @llvm.lifetime.end.p0(i64 8, ptr %12) #3
  %230 = load i32, ptr %6, align 4
  ret i32 %230
}