; Function Attrs: mustprogress uwtable
define hidden range(i32 -44, 1) i32 @mbedtls_base64_decode(ptr noundef %0, i64 noundef %1, ptr noundef writeonly captures(none) %2, ptr noundef readonly captures(none) %3, i64 noundef %4) local_unnamed_addr #0 {
  %.not = icmp eq i64 %4, 0
  br i1 %.not, label %.loopexit.sink.split, label %.preheader90

.preheader90:                                     ; preds = %5, %40
  %.06497 = phi i32 [ %.165, %40 ], [ 0, %5 ]
  %.07296 = phi i64 [ %.173, %40 ], [ 0, %5 ]
  %.07495 = phi i64 [ %41, %40 ], [ 0, %5 ]
  %6 = add nuw i64 %.07495, 1
  %umax = tail call i64 @llvm.umax.i64(i64 %4, i64 %6)
  %7 = getelementptr inbounds nuw i8, ptr %3, i64 %.07495
  %8 = load i8, ptr %7, align 1, !tbaa !7
  %9 = icmp eq i8 %8, 32
  br i1 %9, label %.lr.ph121, label %.critedge

10:                                               ; preds = %.lr.ph121
  %11 = getelementptr inbounds nuw i8, ptr %3, i64 %14
  %12 = load i8, ptr %11, align 1, !tbaa !7
  %13 = icmp eq i8 %12, 32
  br i1 %13, label %.lr.ph121, label %.critedge, !llvm.loop !10

.lr.ph121:                                        ; preds = %.preheader90, %10
  %.27693120 = phi i64 [ %14, %10 ], [ %.07495, %.preheader90 ]
  %14 = add i64 %.27693120, 1
  %exitcond.not = icmp eq i64 %14, %umax
  br i1 %exitcond.not, label %.critedge, label %10, !llvm.loop !10

.critedge:                                        ; preds = %10, %.lr.ph121, %.preheader90
  %.276.lcssa = phi i64 [ %.07495, %.preheader90 ], [ %14, %10 ], [ %umax, %.lr.ph121 ]
  %15 = icmp eq i64 %.276.lcssa, %4
  br i1 %15, label %.critedge._crit_edge, label %16

16:                                               ; preds = %.critedge
  %17 = sub i64 %4, %.276.lcssa
  %18 = icmp ugt i64 %17, 1
  %19 = getelementptr inbounds nuw i8, ptr %3, i64 %.276.lcssa
  %20 = load i8, ptr %19, align 1, !tbaa !7
  %21 = icmp eq i8 %20, 13
  %or.cond119 = select i1 %18, i1 %21, i1 false
  br i1 %or.cond119, label %22, label %._crit_edge

22:                                               ; preds = %16
  %23 = getelementptr i8, ptr %19, i64 1
  %24 = load i8, ptr %23, align 1, !tbaa !7
  %25 = icmp eq i8 %24, 10
  br i1 %25, label %40, label %.thread113

._crit_edge:                                      ; preds = %16
  %26 = icmp eq i8 %20, 10
  br i1 %26, label %40, label %27

27:                                               ; preds = %._crit_edge
  %28 = icmp slt i8 %20, 0
  %or.cond88 = or i1 %9, %28
  br i1 %or.cond88, label %.loopexit, label %29

.thread113:                                       ; preds = %22
  br i1 %9, label %.loopexit, label %.thread115

29:                                               ; preds = %27
  %30 = icmp eq i8 %20, 61
  br i1 %30, label %31, label %.thread115

31:                                               ; preds = %29
  %32 = add nuw nsw i32 %.06497, 1
  %33 = icmp ugt i32 %.06497, 1
  br i1 %33, label %.loopexit, label %38

.thread115:                                       ; preds = %.thread113, %29
  %34 = phi i8 [ %20, %29 ], [ 13, %.thread113 ]
  %.not86 = icmp eq i32 %.06497, 0
  br i1 %.not86, label %35, label %.loopexit

35:                                               ; preds = %.thread115
  %36 = tail call noundef signext i8 @_Z27mbedtls_ct_base64_dec_valueh(i8 noundef zeroext %34)
  %37 = icmp slt i8 %36, 0
  br i1 %37, label %.loopexit, label %38

38:                                               ; preds = %35, %31
  %.266 = phi i32 [ %32, %31 ], [ 0, %35 ]
  %39 = add i64 %.07296, 1
  br label %40

40:                                               ; preds = %._crit_edge, %22, %38
  %.173 = phi i64 [ %.07296, %22 ], [ %.07296, %._crit_edge ], [ %39, %38 ]
  %.165 = phi i32 [ %.06497, %22 ], [ %.06497, %._crit_edge ], [ %.266, %38 ]
  %41 = add i64 %.276.lcssa, 1
  %42 = icmp ult i64 %41, %4
  br i1 %42, label %.preheader90, label %.critedge._crit_edge, !llvm.loop !11

.critedge._crit_edge:                             ; preds = %40, %.critedge
  %.072.lcssa.ph = phi i64 [ %.173, %40 ], [ %.07296, %.critedge ]
  %.064.lcssa.ph = phi i32 [ %.165, %40 ], [ %.06497, %.critedge ]
  %.175.ph = phi i64 [ %41, %40 ], [ %4, %.critedge ]
  %43 = icmp eq i64 %.072.lcssa.ph, 0
  br i1 %43, label %.loopexit.sink.split, label %44

44:                                               ; preds = %.critedge._crit_edge
  %45 = zext nneg i32 %.064.lcssa.ph to i64
  %46 = lshr i64 %.072.lcssa.ph, 3
  %47 = mul nuw i64 %46, 6
  %48 = and i64 %.072.lcssa.ph, 7
  %49 = mul nuw nsw i64 %48, 6
  %50 = add nuw nsw i64 %49, 7
  %51 = lshr i64 %50, 3
  %52 = sub i64 %47, %45
  %53 = add i64 %52, %51
  %54 = icmp eq ptr %0, null
  %55 = icmp ult i64 %1, %53
  %or.cond = select i1 %54, i1 true, i1 %55
  br i1 %or.cond, label %.loopexit.sink.split, label %.preheader

.preheader:                                       ; preds = %44
  %.not87103 = icmp eq i64 %.175.ph, 0
  br i1 %.not87103, label %._crit_edge110, label %.lr.ph

.lr.ph:                                           ; preds = %.preheader, %.thread
  %.0109 = phi ptr [ %.1, %.thread ], [ %0, %.preheader ]
  %.3108 = phi i32 [ %.4, %.thread ], [ 0, %.preheader ]
  %.067107 = phi i32 [ %.168, %.thread ], [ 0, %.preheader ]
  %.069106 = phi i32 [ %.170, %.thread ], [ 0, %.preheader ]
  %.377105 = phi i64 [ %82, %.thread ], [ %.175.ph, %.preheader ]
  %.079104 = phi ptr [ %83, %.thread ], [ %3, %.preheader ]
  %56 = load i8, ptr %.079104, align 1, !tbaa !7
  switch i8 %56, label %57 [
    i8 13, label %.thread
    i8 10, label %.thread
    i8 32, label %.thread
  ]

57:                                               ; preds = %.lr.ph
  %58 = shl i32 %.069106, 6
  %59 = icmp eq i8 %56, 61
  br i1 %59, label %60, label %62

60:                                               ; preds = %57
  %61 = add i32 %.3108, 1
  br label %66

62:                                               ; preds = %57
  %63 = tail call noundef signext i8 @_Z27mbedtls_ct_base64_dec_valueh(i8 noundef zeroext %56)
  %64 = sext i8 %63 to i32
  %65 = or i32 %58, %64
  br label %66

66:                                               ; preds = %62, %60
  %.271 = phi i32 [ %58, %60 ], [ %65, %62 ]
  %.5 = phi i32 [ %61, %60 ], [ %.3108, %62 ]
  %67 = add i32 %.067107, 1
  %68 = icmp eq i32 %67, 4
  br i1 %68, label %69, label %.thread

69:                                               ; preds = %66
  %70 = lshr i32 %.271, 16
  %71 = trunc i32 %70 to i8
  %72 = getelementptr inbounds nuw i8, ptr %.0109, i64 1
  store i8 %71, ptr %.0109, align 1, !tbaa !7
  %73 = icmp ult i32 %.5, 2
  br i1 %73, label %74, label %.thread

74:                                               ; preds = %69
  %75 = lshr i32 %.271, 8
  %76 = trunc i32 %75 to i8
  %77 = getelementptr inbounds nuw i8, ptr %.0109, i64 2
  store i8 %76, ptr %72, align 1, !tbaa !7
  %78 = icmp eq i32 %.5, 0
  br i1 %78, label %79, label %.thread

79:                                               ; preds = %74
  %80 = trunc i32 %.271 to i8
  %81 = getelementptr inbounds nuw i8, ptr %.0109, i64 3
  store i8 %80, ptr %77, align 1, !tbaa !7
  br label %.thread

.thread:                                          ; preds = %69, %.lr.ph, %.lr.ph, %.lr.ph, %66, %79, %74
  %.170 = phi i32 [ %.069106, %.lr.ph ], [ %.271, %79 ], [ %.271, %74 ], [ %.271, %66 ], [ %.069106, %.lr.ph ], [ %.069106, %.lr.ph ], [ %.271, %69 ]
  %.168 = phi i32 [ %.067107, %.lr.ph ], [ 0, %79 ], [ 0, %74 ], [ %67, %66 ], [ %.067107, %.lr.ph ], [ %.067107, %.lr.ph ], [ 0, %69 ]
  %.4 = phi i32 [ %.3108, %.lr.ph ], [ 0, %79 ], [ 1, %74 ], [ %.5, %66 ], [ %.3108, %.lr.ph ], [ %.3108, %.lr.ph ], [ %.5, %69 ]
  %.1 = phi ptr [ %.0109, %.lr.ph ], [ %81, %79 ], [ %77, %74 ], [ %.0109, %66 ], [ %.0109, %.lr.ph ], [ %.0109, %.lr.ph ], [ %72, %69 ]
  %82 = add i64 %.377105, -1
  %83 = getelementptr inbounds nuw i8, ptr %.079104, i64 1
  %.not87 = icmp eq i64 %82, 0
  br i1 %.not87, label %._crit_edge110, label %.lr.ph, !llvm.loop !12

._crit_edge110:                                   ; preds = %.thread, %.preheader
  %.0.lcssa = phi ptr [ %0, %.preheader ], [ %.1, %.thread ]
  %84 = ptrtoint ptr %.0.lcssa to i64
  %85 = ptrtoint ptr %0 to i64
  %86 = sub i64 %84, %85
  br label %.loopexit.sink.split

.loopexit.sink.split:                             ; preds = %44, %.critedge._crit_edge, %5, %._crit_edge110
  %.sink = phi i64 [ %86, %._crit_edge110 ], [ 0, %5 ], [ 0, %.critedge._crit_edge ], [ %53, %44 ]
  %.078.ph = phi i32 [ 0, %._crit_edge110 ], [ 0, %5 ], [ 0, %.critedge._crit_edge ], [ -42, %44 ]
  store i64 %.sink, ptr %2, align 8, !tbaa !3
  br label %.loopexit

.loopexit:                                        ; preds = %35, %.thread115, %31, %27, %.thread113, %.loopexit.sink.split
  %.078 = phi i32 [ %.078.ph, %.loopexit.sink.split ], [ -44, %.thread113 ], [ -44, %27 ], [ -44, %31 ], [ -44, %.thread115 ], [ -44, %35 ]
  ret i32 %.078
}